target datalayout = "e-m:e-p270:32:32-p271:32:32-p272:64:64-i64:64-i128:128-f80:128-n8:16:32:64-S128"
target triple = "x86_64-pc-linux-gnu"

%struct.sentinelRedisInstance = type { i32, ptr, ptr, i64, ptr, ptr, i64, i64, i64, i64, i64, i64, i64, i64, i64, ptr, i32, i64, i64, ptr, ptr, i32, i32, ptr, ptr, i64, i32, i32, i64, ptr, ptr, i32, i32, i64, ptr, i64, i64, i32, i64, i64, i64, i64, ptr, ptr, ptr, ptr }
%struct.instanceLink = type { i32, i32, i32, ptr, ptr, i64, i64, i64, i64, i64, i64, i64, i64 }

@.str.21 = private unnamed_addr constant [11 x i8] c"sentinel.c\00", align 1
@.str.54 = private unnamed_addr constant [3 x i8] c"%@\00", align 1
@.str.435 = private unnamed_addr constant [30 x i8] c"-failover-abort-slave-timeout\00", align 1
@.str.436 = private unnamed_addr constant [31 x i8] c"+failover-state-wait-promotion\00", align 1
@.str.442 = private unnamed_addr constant [37 x i8] c"ri->flags & SRI_FAILOVER_IN_PROGRESS\00", align 1
@.str.443 = private unnamed_addr constant [61 x i8] c"ri->failover_state <= SENTINEL_FAILOVER_STATE_WAIT_PROMOTION\00", align 1

; Function Attrs: nounwind uwtable
define dso_local void @sentinelAbortFailover(ptr noundef %0) #0 {
  %2 = alloca ptr, align 8
  store ptr %0, ptr %2, align 8, !tbaa !11
  %3 = load ptr, ptr %2, align 8, !tbaa !11
  %4 = getelementptr inbounds nuw %struct.sentinelRedisInstance, ptr %3, i32 0, i32 0
  %5 = load i32, ptr %4, align 8, !tbaa !34
  %6 = and i32 %5, 64
  %7 = icmp ne i32 %6, 0
  %8 = xor i1 %7, true
  %9 = xor i1 %8, true
  %10 = zext i1 %9 to i32
  %11 = sext i32 %10 to i64
  %12 = call i64 @llvm.expect.i64(i64 %11, i64 1)
  %13 = icmp ne i64 %12, 0
  br i1 %13, label %14, label %15

14:                                               ; preds = %1
  br label %17

15:                                               ; preds = %1
  call void @_serverAssert(ptr noundef @.str.442, ptr noundef @.str.21, i32 noundef 5340)
  call void @abort() #15
  unreachable

16:                                               ; No predecessors!
  br label %17

17:                                               ; preds = %16, %14
  %18 = load ptr, ptr %2, align 8, !tbaa !11
  %19 = getelementptr inbounds nuw %struct.sentinelRedisInstance, ptr %18, i32 0, i32 37
  %20 = load i32, ptr %19, align 8, !tbaa !193
  %21 = icmp sle i32 %20, 4
  %22 = xor i1 %21, true
  %23 = xor i1 %22, true
  %24 = zext i1 %23 to i32
  %25 = sext i32 %24 to i64
  %26 = call i64 @llvm.expect.i64(i64 %25, i64 1)
  %27 = icmp ne i64 %26, 0
  br i1 %27, label %28, label %29

28:                                               ; preds = %17
  br label %31

29:                                               ; preds = %17
  call void @_serverAssert(ptr noundef @.str.443, ptr noundef @.str.21, i32 noundef 5341)
  call void @abort() #15
  unreachable

30:                                               ; No predecessors!
  br label %31

31:                                               ; preds = %30, %28
  %32 = load ptr, ptr %2, align 8, !tbaa !11
  %33 = getelementptr inbounds nuw %struct.sentinelRedisInstance, ptr %32, i32 0, i32 0
  %34 = load i32, ptr %33, align 8, !tbaa !34
  %35 = and i32 %34, -2113
  store i32 %35, ptr %33, align 8, !tbaa !34
  %36 = load ptr, ptr %2, align 8, !tbaa !11
  %37 = getelementptr inbounds nuw %struct.sentinelRedisInstance, ptr %36, i32 0, i32 37
  store i32 0, ptr %37, align 8, !tbaa !193
  %38 = call i64 @mstime()
  %39 = load ptr, ptr %2, align 8, !tbaa !11
  %40 = getelementptr inbounds nuw %struct.sentinelRedisInstance, ptr %39, i32 0, i32 38
  store i64 %38, ptr %40, align 8, !tbaa !194
  %41 = load ptr, ptr %2, align 8, !tbaa !11
  %42 = getelementptr inbounds nuw %struct.sentinelRedisInstance, ptr %41, i32 0, i32 42
  %43 = load ptr, ptr %42, align 8, !tbaa !36
  %44 = icmp ne ptr %43, null
  br i1 %44, label %45, label %54

45:                                               ; preds = %31
  %46 = load ptr, ptr %2, align 8, !tbaa !11
  %47 = getelementptr inbounds nuw %struct.sentinelRedisInstance, ptr %46, i32 0, i32 42
  %48 = load ptr, ptr %47, align 8, !tbaa !36
  %49 = getelementptr inbounds nuw %struct.sentinelRedisInstance, ptr %48, i32 0, i32 0
  %50 = load i32, ptr %49, align 8, !tbaa !34
  %51 = and i32 %50, -129
  store i32 %51, ptr %49, align 8, !tbaa !34
  %52 = load ptr, ptr %2, align 8, !tbaa !11
  %53 = getelementptr inbounds nuw %struct.sentinelRedisInstance, ptr %52, i32 0, i32 42
  store ptr null, ptr %53, align 8, !tbaa !36
  br label %54

54:                                               ; preds = %45, %31
  ret void
}

; Function Attrs: nounwind uwtable
define dso_local void @sentinelFailoverSendSlaveOfNoOne(ptr noundef %0) #0 {
  %2 = alloca ptr, align 8
  %3 = alloca i32, align 4
  %4 = alloca i32, align 4
  store ptr %0, ptr %2, align 8, !tbaa !11
  call void @llvm.lifetime.start.p0(i64 4, ptr %3) #16
  %5 = load ptr, ptr %2, align 8, !tbaa !11
  %6 = getelementptr inbounds nuw %struct.sentinelRedisInstance, ptr %5, i32 0, i32 42
  %7 = load ptr, ptr %6, align 8, !tbaa !36
  %8 = getelementptr inbounds nuw %struct.sentinelRedisInstance, ptr %7, i32 0, i32 5
  %9 = load ptr, ptr %8, align 8, !tbaa !22
  %10 = getelementptr inbounds nuw %struct.instanceLink, ptr %9, i32 0, i32 1
  %11 = load i32, ptr %10, align 4, !tbaa !133
  %12 = icmp ne i32 %11, 0
  br i1 %12, label %13, label %27

13:                                               ; preds = %1
  %14 = call i64 @mstime()
  %15 = load ptr, ptr %2, align 8, !tbaa !11
  %16 = getelementptr inbounds nuw %struct.sentinelRedisInstance, ptr %15, i32 0, i32 38
  %17 = load i64, ptr %16, align 8, !tbaa !194
  %18 = sub nsw i64 %14, %17
  %19 = load ptr, ptr %2, align 8, !tbaa !11
  %20 = getelementptr inbounds nuw %struct.sentinelRedisInstance, ptr %19, i32 0, i32 40
  %21 = load i64, ptr %20, align 8, !tbaa !196
  %22 = icmp sgt i64 %18, %21
  br i1 %22, label %23, label %26

23:                                               ; preds = %13
  %24 = load ptr, ptr %2, align 8, !tbaa !11
  call void (i32, ptr, ptr, ptr, ...) @sentinelEvent(i32 noundef 3, ptr noundef @.str.435, ptr noundef %24, ptr noundef @.str.54)
  %25 = load ptr, ptr %2, align 8, !tbaa !11
  call void @sentinelAbortFailover(ptr noundef %25)
  br label %26

26:                                               ; preds = %23, %13
  store i32 1, ptr %4, align 4
  br label %44

27:                                               ; preds = %1
  %28 = load ptr, ptr %2, align 8, !tbaa !11
  %29 = getelementptr inbounds nuw %struct.sentinelRedisInstance, ptr %28, i32 0, i32 42
  %30 = load ptr, ptr %29, align 8, !tbaa !36
  %31 = call i32 @sentinelSendSlaveOf(ptr noundef %30, ptr noundef null)
  store i32 %31, ptr %3, align 4, !tbaa !82
  %32 = load i32, ptr %3, align 4, !tbaa !82
  %33 = icmp ne i32 %32, 0
  br i1 %33, label %34, label %35

34:                                               ; preds = %27
  store i32 1, ptr %4, align 4
  br label %44

35:                                               ; preds = %27
  %36 = load ptr, ptr %2, align 8, !tbaa !11
  %37 = getelementptr inbounds nuw %struct.sentinelRedisInstance, ptr %36, i32 0, i32 42
  %38 = load ptr, ptr %37, align 8, !tbaa !36
  call void (i32, ptr, ptr, ptr, ...) @sentinelEvent(i32 noundef 2, ptr noundef @.str.436, ptr noundef %38, ptr noundef @.str.54)
  %39 = load ptr, ptr %2, align 8, !tbaa !11
  %40 = getelementptr inbounds nuw %struct.sentinelRedisInstance, ptr %39, i32 0, i32 37
  store i32 4, ptr %40, align 8, !tbaa !193
  %41 = call i64 @mstime()
  %42 = load ptr, ptr %2, align 8, !tbaa !11
  %43 = getelementptr inbounds nuw %struct.sentinelRedisInstance, ptr %42, i32 0, i32 38
  store i64 %41, ptr %43, align 8, !tbaa !194
  store i32 0, ptr %4, align 4
  br label %44

44:                                               ; preds = %35, %34, %26
  call void @llvm.lifetime.end.p0(i64 4, ptr %3) #16
  %45 = load i32, ptr %4, align 4
  switch i32 %45, label %47 [
    i32 0, label %46
    i32 1, label %46
  ]

46:                                               ; preds = %44, %44
  ret void

47:                                               ; preds = %44
  unreachable
}