; Function Attrs: nounwind uwtable
define dso_local void @sentinelFailoverSendSlaveOfNoOne(ptr noundef captures(address_is_null) %0) local_unnamed_addr #0 {
  %2 = getelementptr inbounds nuw i8, ptr %0, i64 312
  %3 = load ptr, ptr %2, align 8, !tbaa !36
  %4 = getelementptr inbounds nuw i8, ptr %3, i64 40
  %5 = load ptr, ptr %4, align 8, !tbaa !19
  %6 = getelementptr inbounds nuw i8, ptr %5, i64 4
  %7 = load i32, ptr %6, align 4, !tbaa !117
  %.not = icmp eq i32 %7, 0
  br i1 %.not, label %32, label %8

8:                                                ; preds = %1
  %9 = tail call i64 @mstime() #30
  %10 = getelementptr inbounds nuw i8, ptr %0, i64 280
  %11 = load i64, ptr %10, align 8, !tbaa !243
  %12 = sub nsw i64 %9, %11
  %13 = getelementptr inbounds nuw i8, ptr %0, i64 296
  %14 = load i64, ptr %13, align 8, !tbaa !164
  %15 = icmp sgt i64 %12, %14
  br i1 %15, label %16, label %sentinelAbortFailover.exit

16:                                               ; preds = %8
  tail call void (i32, ptr, ptr, ptr, ...) @sentinelEvent(i32 noundef 3, ptr noundef nonnull @.str.435, ptr noundef nonnull %0, ptr noundef nonnull @.str.54)
  %17 = load i32, ptr %0, align 8, !tbaa !34
  %18 = and i32 %17, 64
  %.not.i = icmp eq i32 %18, 0
  br i1 %.not.i, label %19, label %20, !prof !144

19:                                               ; preds = %16
  tail call void @_serverAssert(ptr noundef nonnull @.str.442, ptr noundef nonnull @.str.21, i32 noundef 5340) #30
  tail call void @abort() #35
  unreachable

20:                                               ; preds = %16
  %21 = getelementptr inbounds nuw i8, ptr %0, i64 272
  %22 = load i32, ptr %21, align 8, !tbaa !169
  %23 = icmp slt i32 %22, 5
  br i1 %23, label %25, label %24, !prof !103

24:                                               ; preds = %20
  tail call void @_serverAssert(ptr noundef nonnull @.str.443, ptr noundef nonnull @.str.21, i32 noundef 5341) #30
  tail call void @abort() #35
  unreachable

25:                                               ; preds = %20
  %26 = and i32 %17, -2113
  store i32 %26, ptr %0, align 8, !tbaa !34
  store i32 0, ptr %21, align 8, !tbaa !169
  %27 = tail call i64 @mstime() #30
  store i64 %27, ptr %10, align 8, !tbaa !243
  %28 = load ptr, ptr %2, align 8, !tbaa !36
  %.not8.i = icmp eq ptr %28, null
  br i1 %.not8.i, label %sentinelAbortFailover.exit, label %29

29:                                               ; preds = %25
  %30 = load i32, ptr %28, align 8, !tbaa !34
  %31 = and i32 %30, -129
  store i32 %31, ptr %28, align 8, !tbaa !34
  store ptr null, ptr %2, align 8, !tbaa !36
  br label %sentinelAbortFailover.exit

32:                                               ; preds = %1
  %33 = tail call i32 @sentinelSendSlaveOf(ptr noundef nonnull %3, ptr noundef null)
  %.not9 = icmp eq i32 %33, 0
  br i1 %.not9, label %34, label %sentinelAbortFailover.exit

34:                                               ; preds = %32
  %35 = load ptr, ptr %2, align 8, !tbaa !36
  tail call void (i32, ptr, ptr, ptr, ...) @sentinelEvent(i32 noundef 2, ptr noundef nonnull @.str.436, ptr noundef %35, ptr noundef nonnull @.str.54)
  %36 = getelementptr inbounds nuw i8, ptr %0, i64 272
  store i32 4, ptr %36, align 8, !tbaa !169
  %37 = tail call i64 @mstime() #30
  %38 = getelementptr inbounds nuw i8, ptr %0, i64 280
  store i64 %37, ptr %38, align 8, !tbaa !243
  br label %sentinelAbortFailover.exit

sentinelAbortFailover.exit:                       ; preds = %29, %25, %32, %8, %34
  ret void
}